; Function Attrs: mustprogress noreturn uwtable
define internal fastcc void @_ZN19OpenColorIO_v2_4dev12_GLOBAL__N_115LocalFileFormat17ThrowErrorMessageERKNSt7__cxx1112basic_stringIcSt11char_traitsIcESaIcEEES9_iS9_(ptr noundef nonnull align 8 dereferenceable(32) %error, ptr noundef nonnull align 8 dereferenceable(32) %fileName, i32 noundef %line, ptr noundef nonnull align 8 dereferenceable(32) %lineContent) unnamed_addr #10 align 2 personality ptr @__gxx_personality_v0 {
entry:
  %os = alloca %"class.std::__cxx11::basic_ostringstream", align 8
  %ref.tmp = alloca %"class.std::__cxx11::basic_string", align 8
  call void @_ZNSt7__cxx1119basic_ostringstreamIcSt11char_traitsIcESaIcEEC1Ev(ptr noundef nonnull align 8 dereferenceable(112) %os)
  %call = invoke noundef nonnull align 8 dereferenceable(8) ptr @_ZStlsISt11char_traitsIcEERSt13basic_ostreamIcT_ES5_PKc(ptr noundef nonnull align 8 dereferenceable(8) %os, ptr noundef nonnull @.str.26)
          to label %invoke.cont unwind label %lpad

invoke.cont:                                      ; preds = %entry
  %call2 = invoke noundef nonnull align 8 dereferenceable(8) ptr @_ZStlsIcSt11char_traitsIcESaIcEERSt13basic_ostreamIT_T0_ES7_RKNSt7__cxx1112basic_stringIS4_S5_T1_EE(ptr noundef nonnull align 8 dereferenceable(8) %os, ptr noundef nonnull align 8 dereferenceable(32) %fileName)
          to label %invoke.cont1 unwind label %lpad

invoke.cont1:                                     ; preds = %invoke.cont
  %call4 = invoke noundef nonnull align 8 dereferenceable(8) ptr @_ZStlsISt11char_traitsIcEERSt13basic_ostreamIcT_ES5_PKc(ptr noundef nonnull align 8 dereferenceable(8) %os, ptr noundef nonnull @.str.27)
          to label %invoke.cont3 unwind label %lpad

invoke.cont3:                                     ; preds = %invoke.cont1
  %cmp.not = icmp eq i32 %line, -1
  br i1 %cmp.not, label %if.end, label %if.then

if.then:                                          ; preds = %invoke.cont3
  %call6 = invoke noundef nonnull align 8 dereferenceable(8) ptr @_ZStlsISt11char_traitsIcEERSt13basic_ostreamIcT_ES5_PKc(ptr noundef nonnull align 8 dereferenceable(8) %os, ptr noundef nonnull @.str.28)
          to label %invoke.cont5 unwind label %lpad

invoke.cont5:                                     ; preds = %if.then
  %call8 = invoke noundef nonnull align 8 dereferenceable(8) ptr @_ZNSolsEi(ptr noundef nonnull align 8 dereferenceable(8) %call6, i32 noundef %line)
          to label %invoke.cont7 unwind label %lpad

invoke.cont7:                                     ; preds = %invoke.cont5
  %call10 = invoke noundef nonnull align 8 dereferenceable(8) ptr @_ZStlsISt11char_traitsIcEERSt13basic_ostreamIcT_ES5_PKc(ptr noundef nonnull align 8 dereferenceable(8) %call8, ptr noundef nonnull @.str.29)
          to label %invoke.cont9 unwind label %lpad

invoke.cont9:                                     ; preds = %invoke.cont7
  %call12 = invoke noundef nonnull align 8 dereferenceable(8) ptr @_ZStlsIcSt11char_traitsIcESaIcEERSt13basic_ostreamIT_T0_ES7_RKNSt7__cxx1112basic_stringIS4_S5_T1_EE(ptr noundef nonnull align 8 dereferenceable(8) %os, ptr noundef nonnull align 8 dereferenceable(32) %lineContent)
          to label %invoke.cont11 unwind label %lpad

invoke.cont11:                                    ; preds = %invoke.cont9
  %call14 = invoke noundef nonnull align 8 dereferenceable(8) ptr @_ZStlsISt11char_traitsIcEERSt13basic_ostreamIcT_ES5_PKc(ptr noundef nonnull align 8 dereferenceable(8) %call12, ptr noundef nonnull @.str.30)
          to label %if.end unwind label %lpad

lpad:                                             ; preds = %if.end, %invoke.cont11, %invoke.cont9, %invoke.cont7, %invoke.cont5, %if.then, %invoke.cont1, %invoke.cont, %entry
  %0 = landingpad { ptr, i32 }
          cleanup
  br label %ehcleanup22

if.end:                                           ; preds = %invoke.cont11, %invoke.cont3
  %call16 = invoke noundef nonnull align 8 dereferenceable(8) ptr @_ZStlsIcSt11char_traitsIcESaIcEERSt13basic_ostreamIT_T0_ES7_RKNSt7__cxx1112basic_stringIS4_S5_T1_EE(ptr noundef nonnull align 8 dereferenceable(8) %os, ptr noundef nonnull align 8 dereferenceable(32) %error)
          to label %invoke.cont15 unwind label %lpad

invoke.cont15:                                    ; preds = %if.end
  %exception = call ptr @__cxa_allocate_exception(i64 16) #21
  invoke void @_ZNKSt7__cxx1119basic_ostringstreamIcSt11char_traitsIcESaIcEE3strEv(ptr nonnull sret(%"class.std::__cxx11::basic_string") align 8 %ref.tmp, ptr noundef nonnull align 8 dereferenceable(112) %os)
          to label %invoke.cont18 unwind label %ehcleanup.thread

invoke.cont18:                                    ; preds = %invoke.cont15
  %call19 = call noundef ptr @_ZNKSt7__cxx1112basic_stringIcSt11char_traitsIcESaIcEE5c_strEv(ptr noundef nonnull align 8 dereferenceable(32) %ref.tmp) #21
  invoke void @_ZN19OpenColorIO_v2_4dev9ExceptionC1EPKc(ptr noundef nonnull align 8 dereferenceable(16) %exception, ptr noundef %call19)
          to label %invoke.cont21 unwind label %ehcleanup.thread7

ehcleanup.thread7:                                ; preds = %invoke.cont18
  %1 = landingpad { ptr, i32 }
          cleanup
  call void @_ZNSt7__cxx1112basic_stringIcSt11char_traitsIcESaIcEED1Ev(ptr noundef nonnull align 8 dereferenceable(32) %ref.tmp) #21
  br label %cleanup.action

invoke.cont21:                                    ; preds = %invoke.cont18
  invoke void @__cxa_throw(ptr nonnull %exception, ptr nonnull @_ZTIN19OpenColorIO_v2_4dev9ExceptionE, ptr nonnull @_ZN19OpenColorIO_v2_4dev9ExceptionD1Ev) #23
          to label %unreachable unwind label %ehcleanup

ehcleanup.thread:                                 ; preds = %invoke.cont15
  %2 = landingpad { ptr, i32 }
          cleanup
  br label %cleanup.action

ehcleanup:                                        ; preds = %invoke.cont21
  %3 = landingpad { ptr, i32 }
          cleanup
  call void @_ZNSt7__cxx1112basic_stringIcSt11char_traitsIcESaIcEED1Ev(ptr noundef nonnull align 8 dereferenceable(32) %ref.tmp) #21
  br label %ehcleanup22

cleanup.action:                                   ; preds = %ehcleanup.thread7, %ehcleanup.thread
  %.pn6 = phi { ptr, i32 } [ %2, %ehcleanup.thread ], [ %1, %ehcleanup.thread7 ]
  call void @__cxa_free_exception(ptr %exception) #21
  br label %ehcleanup22

ehcleanup22:                                      ; preds = %ehcleanup, %cleanup.action, %lpad
  %.pn.pn = phi { ptr, i32 } [ %.pn6, %cleanup.action ], [ %3, %ehcleanup ], [ %0, %lpad ]
  call void @_ZNSt7__cxx1119basic_ostringstreamIcSt11char_traitsIcESaIcEED1Ev(ptr noundef nonnull align 8 dereferenceable(112) %os) #21
  resume { ptr, i32 } %.pn.pn

unreachable:                                      ; preds = %invoke.cont21
  unreachable
}